target datalayout = "e-m:e-p270:32:32-p271:32:32-p272:64:64-i64:64-i128:128-f80:128-n8:16:32:64-S128"
target triple = "x86_64-pc-linux-gnu"

%"class.osgeo::proj::util::BaseObject" = type { ptr, %"class.std::unique_ptr.2" }
%"class.std::unique_ptr.2" = type { %"struct.std::__uniq_ptr_data.3" }
%"struct.std::__uniq_ptr_data.3" = type { %"class.std::__uniq_ptr_impl.4" }
%"class.std::__uniq_ptr_impl.4" = type { %"class.std::tuple.5" }
%"class.std::tuple.5" = type { %"struct.std::_Tuple_impl.6" }
%"struct.std::_Tuple_impl.6" = type { %"struct.std::_Head_base.9" }
%"struct.std::_Head_base.9" = type { ptr }
%"class.std::unique_ptr" = type { %"struct.std::__uniq_ptr_data" }
%"struct.std::__uniq_ptr_data" = type { %"class.std::__uniq_ptr_impl" }
%"class.std::__uniq_ptr_impl" = type { %"class.std::tuple" }
%"class.std::tuple" = type { %"struct.std::_Tuple_impl" }
%"struct.std::_Tuple_impl" = type { %"struct.std::_Head_base.1" }
%"struct.std::_Head_base.1" = type { ptr }
%"class.osgeo::proj::crs::SingleCRS" = type { %"class.osgeo::proj::crs::CRS", %"class.std::unique_ptr.34" }
%"class.osgeo::proj::crs::CRS" = type { %"class.osgeo::proj::common::ObjectUsage", %"class.osgeo::proj::io::IJSONExportable", %"class.std::unique_ptr.26" }
%"class.osgeo::proj::common::ObjectUsage" = type { %"class.osgeo::proj::common::IdentifiedObject", %"class.std::unique_ptr.18" }
%"class.osgeo::proj::common::IdentifiedObject" = type { %"class.osgeo::proj::util::BaseObject", %"class.osgeo::proj::util::IComparable", %"class.osgeo::proj::io::IWKTExportable", %"class.std::unique_ptr.10" }
%"class.osgeo::proj::util::IComparable" = type { ptr }
%"class.osgeo::proj::io::IWKTExportable" = type { ptr }
%"class.std::unique_ptr.10" = type { %"struct.std::__uniq_ptr_data.11" }
%"struct.std::__uniq_ptr_data.11" = type { %"class.std::__uniq_ptr_impl.12" }
%"class.std::__uniq_ptr_impl.12" = type { %"class.std::tuple.13" }
%"class.std::tuple.13" = type { %"struct.std::_Tuple_impl.14" }
%"struct.std::_Tuple_impl.14" = type { %"struct.std::_Head_base.17" }
%"struct.std::_Head_base.17" = type { ptr }
%"class.std::unique_ptr.18" = type { %"struct.std::__uniq_ptr_data.19" }
%"struct.std::__uniq_ptr_data.19" = type { %"class.std::__uniq_ptr_impl.20" }
%"class.std::__uniq_ptr_impl.20" = type { %"class.std::tuple.21" }
%"class.std::tuple.21" = type { %"struct.std::_Tuple_impl.22" }
%"struct.std::_Tuple_impl.22" = type { %"struct.std::_Head_base.25" }
%"struct.std::_Head_base.25" = type { ptr }
%"class.osgeo::proj::io::IJSONExportable" = type { ptr }
%"class.std::unique_ptr.26" = type { %"struct.std::__uniq_ptr_data.27" }
%"struct.std::__uniq_ptr_data.27" = type { %"class.std::__uniq_ptr_impl.28" }
%"class.std::__uniq_ptr_impl.28" = type { %"class.std::tuple.29" }
%"class.std::tuple.29" = type { %"struct.std::_Tuple_impl.30" }
%"struct.std::_Tuple_impl.30" = type { %"struct.std::_Head_base.33" }
%"struct.std::_Head_base.33" = type { ptr }
%"class.std::unique_ptr.34" = type { %"struct.std::__uniq_ptr_data.35" }
%"struct.std::__uniq_ptr_data.35" = type { %"class.std::__uniq_ptr_impl.36" }
%"class.std::__uniq_ptr_impl.36" = type { %"class.std::tuple.37" }
%"class.std::tuple.37" = type { %"struct.std::_Tuple_impl.38" }
%"struct.std::_Tuple_impl.38" = type { %"struct.std::_Head_base.41" }
%"struct.std::_Head_base.41" = type { ptr }
%"class.osgeo::proj::crs::EngineeringCRS" = type { ptr, %"class.std::unique_ptr", %"class.osgeo::proj::crs::SingleCRS" }

; Function Attrs: mustprogress nounwind uwtable
define linkonce_odr hidden noundef nonnull align 1 dereferenceable(1) ptr @_ZNSt10_Head_baseILm1ESt14default_deleteIN5osgeo4proj3crs14EngineeringCRS7PrivateEELb1EE7_M_headERS7_(ptr noundef nonnull align 1 dereferenceable(1) %0) #4 comdat align 2 {
  %2 = alloca ptr, align 8
  store ptr %0, ptr %2, align 8
  %3 = load ptr, ptr %2, align 8
  ret ptr %3
}

; Function Attrs: mustprogress nounwind uwtable
define linkonce_odr hidden noundef nonnull align 1 dereferenceable(1) ptr @_ZNSt11_Tuple_implILm1EJSt14default_deleteIN5osgeo4proj3crs14EngineeringCRS7PrivateEEEE7_M_headERS7_(ptr noundef nonnull align 1 dereferenceable(1) %0) #4 comdat align 2 {
  %2 = alloca ptr, align 8
  store ptr %0, ptr %2, align 8
  %3 = load ptr, ptr %2, align 8
  %4 = call noundef nonnull align 1 dereferenceable(1) ptr @_ZNSt10_Head_baseILm1ESt14default_deleteIN5osgeo4proj3crs14EngineeringCRS7PrivateEELb1EE7_M_headERS7_(ptr noundef nonnull align 1 dereferenceable(1) %3) #3
  ret ptr %4
}

; Function Attrs: mustprogress nounwind uwtable
define linkonce_odr hidden noundef nonnull align 8 dereferenceable(8) ptr @_ZNSt10_Head_baseILm0EPN5osgeo4proj3crs14EngineeringCRS7PrivateELb0EE7_M_headERS6_(ptr noundef nonnull align 8 dereferenceable(8) %0) #4 comdat align 2 {
  %2 = alloca ptr, align 8
  store ptr %0, ptr %2, align 8
  %3 = load ptr, ptr %2, align 8
  %4 = getelementptr inbounds %"struct.std::_Head_base.1", ptr %3, i32 0, i32 0
  ret ptr %4
}

; Function Attrs: mustprogress nounwind uwtable
define linkonce_odr hidden noundef nonnull align 1 dereferenceable(1) ptr @_ZSt12__get_helperILm1ESt14default_deleteIN5osgeo4proj3crs14EngineeringCRS7PrivateEEJEERT0_RSt11_Tuple_implIXT_EJS7_DpT1_EE(ptr noundef nonnull align 1 dereferenceable(1) %0) #4 comdat {
  %2 = alloca ptr, align 8
  store ptr %0, ptr %2, align 8
  %3 = load ptr, ptr %2, align 8
  %4 = call noundef nonnull align 1 dereferenceable(1) ptr @_ZNSt11_Tuple_implILm1EJSt14default_deleteIN5osgeo4proj3crs14EngineeringCRS7PrivateEEEE7_M_headERS7_(ptr noundef nonnull align 1 dereferenceable(1) %3) #3
  ret ptr %4
}

; Function Attrs: mustprogress nounwind uwtable
define linkonce_odr hidden noundef nonnull align 8 dereferenceable(8) ptr @_ZNSt11_Tuple_implILm0EJPN5osgeo4proj3crs14EngineeringCRS7PrivateESt14default_deleteIS4_EEE7_M_headERS8_(ptr noundef nonnull align 8 dereferenceable(8) %0) #4 comdat align 2 {
  %2 = alloca ptr, align 8
  store ptr %0, ptr %2, align 8
  %3 = load ptr, ptr %2, align 8
  %4 = call noundef nonnull align 8 dereferenceable(8) ptr @_ZNSt10_Head_baseILm0EPN5osgeo4proj3crs14EngineeringCRS7PrivateELb0EE7_M_headERS6_(ptr noundef nonnull align 8 dereferenceable(8) %3) #3
  ret ptr %4
}

; Function Attrs: mustprogress nounwind uwtable
define linkonce_odr hidden noundef nonnull align 1 dereferenceable(1) ptr @_ZSt3getILm1EJPN5osgeo4proj3crs14EngineeringCRS7PrivateESt14default_deleteIS4_EEERNSt13tuple_elementIXT_ESt5tupleIJDpT0_EEE4typeERSC_(ptr noundef nonnull align 8 dereferenceable(8) %0) #4 comdat {
  %2 = alloca ptr, align 8
  store ptr %0, ptr %2, align 8
  %3 = load ptr, ptr %2, align 8
  %4 = call noundef nonnull align 1 dereferenceable(1) ptr @_ZSt12__get_helperILm1ESt14default_deleteIN5osgeo4proj3crs14EngineeringCRS7PrivateEEJEERT0_RSt11_Tuple_implIXT_EJS7_DpT1_EE(ptr noundef nonnull align 1 dereferenceable(1) %3) #3
  ret ptr %4
}

; Function Attrs: mustprogress nounwind uwtable
define linkonce_odr hidden noundef nonnull align 8 dereferenceable(8) ptr @_ZSt12__get_helperILm0EPN5osgeo4proj3crs14EngineeringCRS7PrivateEJSt14default_deleteIS4_EEERT0_RSt11_Tuple_implIXT_EJS8_DpT1_EE(ptr noundef nonnull align 8 dereferenceable(8) %0) #4 comdat {
  %2 = alloca ptr, align 8
  store ptr %0, ptr %2, align 8
  %3 = load ptr, ptr %2, align 8
  %4 = call noundef nonnull align 8 dereferenceable(8) ptr @_ZNSt11_Tuple_implILm0EJPN5osgeo4proj3crs14EngineeringCRS7PrivateESt14default_deleteIS4_EEE7_M_headERS8_(ptr noundef nonnull align 8 dereferenceable(8) %3) #3
  ret ptr %4
}

; Function Attrs: mustprogress nounwind uwtable
define linkonce_odr hidden noundef nonnull align 1 dereferenceable(1) ptr @_ZNSt15__uniq_ptr_implIN5osgeo4proj3crs14EngineeringCRS7PrivateESt14default_deleteIS4_EE10_M_deleterEv(ptr noundef nonnull align 8 dereferenceable(8) %0) #4 comdat align 2 {
  %2 = alloca ptr, align 8
  store ptr %0, ptr %2, align 8
  %3 = load ptr, ptr %2, align 8
  %4 = getelementptr inbounds %"class.std::__uniq_ptr_impl", ptr %3, i32 0, i32 0
  %5 = call noundef nonnull align 1 dereferenceable(1) ptr @_ZSt3getILm1EJPN5osgeo4proj3crs14EngineeringCRS7PrivateESt14default_deleteIS4_EEERNSt13tuple_elementIXT_ESt5tupleIJDpT0_EEE4typeERSC_(ptr noundef nonnull align 8 dereferenceable(8) %4) #3
  ret ptr %5
}

; Function Attrs: mustprogress nounwind uwtable
define linkonce_odr hidden noundef nonnull align 8 dereferenceable(8) ptr @_ZSt3getILm0EJPN5osgeo4proj3crs14EngineeringCRS7PrivateESt14default_deleteIS4_EEERNSt13tuple_elementIXT_ESt5tupleIJDpT0_EEE4typeERSC_(ptr noundef nonnull align 8 dereferenceable(8) %0) #4 comdat {
  %2 = alloca ptr, align 8
  store ptr %0, ptr %2, align 8
  %3 = load ptr, ptr %2, align 8
  %4 = call noundef nonnull align 8 dereferenceable(8) ptr @_ZSt12__get_helperILm0EPN5osgeo4proj3crs14EngineeringCRS7PrivateEJSt14default_deleteIS4_EEERT0_RSt11_Tuple_implIXT_EJS8_DpT1_EE(ptr noundef nonnull align 8 dereferenceable(8) %3) #3
  ret ptr %4
}

; Function Attrs: noreturn nounwind uwtable
define linkonce_odr hidden void @__clang_call_terminate(ptr noundef %0) #13 comdat {
  %2 = call ptr @__cxa_begin_catch(ptr %0) #3
  call void @_ZSt9terminatev() #20
  unreachable
}

; Function Attrs: mustprogress nounwind uwtable
define linkonce_odr hidden void @_ZNKSt14default_deleteIN5osgeo4proj3crs14EngineeringCRS7PrivateEEclEPS4_(ptr noundef nonnull align 1 dereferenceable(1) %0, ptr noundef %1) #4 comdat align 2 {
  %3 = alloca ptr, align 8
  %4 = alloca ptr, align 8
  store ptr %0, ptr %3, align 8
  store ptr %1, ptr %4, align 8
  %5 = load ptr, ptr %4, align 8
  %6 = icmp eq ptr %5, null
  br i1 %6, label %8, label %7

7:                                                ; preds = %2
  call void @_ZdlPv(ptr noundef %5) #21
  br label %8

8:                                                ; preds = %7, %2
  ret void
}

; Function Attrs: mustprogress nounwind uwtable
define linkonce_odr hidden noundef nonnull align 1 dereferenceable(1) ptr @_ZNSt10unique_ptrIN5osgeo4proj3crs14EngineeringCRS7PrivateESt14default_deleteIS4_EE11get_deleterEv(ptr noundef nonnull align 8 dereferenceable(8) %0) #4 comdat align 2 {
  %2 = alloca ptr, align 8
  store ptr %0, ptr %2, align 8
  %3 = load ptr, ptr %2, align 8
  %4 = getelementptr inbounds %"class.std::unique_ptr", ptr %3, i32 0, i32 0
  %5 = call noundef nonnull align 1 dereferenceable(1) ptr @_ZNSt15__uniq_ptr_implIN5osgeo4proj3crs14EngineeringCRS7PrivateESt14default_deleteIS4_EE10_M_deleterEv(ptr noundef nonnull align 8 dereferenceable(8) %4) #3
  ret ptr %5
}

; Function Attrs: mustprogress nounwind uwtable
define linkonce_odr hidden noundef nonnull align 8 dereferenceable(8) ptr @_ZNSt15__uniq_ptr_implIN5osgeo4proj3crs14EngineeringCRS7PrivateESt14default_deleteIS4_EE6_M_ptrEv(ptr noundef nonnull align 8 dereferenceable(8) %0) #4 comdat align 2 {
  %2 = alloca ptr, align 8
  store ptr %0, ptr %2, align 8
  %3 = load ptr, ptr %2, align 8
  %4 = getelementptr inbounds %"class.std::__uniq_ptr_impl", ptr %3, i32 0, i32 0
  %5 = call noundef nonnull align 8 dereferenceable(8) ptr @_ZSt3getILm0EJPN5osgeo4proj3crs14EngineeringCRS7PrivateESt14default_deleteIS4_EEERNSt13tuple_elementIXT_ESt5tupleIJDpT0_EEE4typeERSC_(ptr noundef nonnull align 8 dereferenceable(8) %4) #3
  ret ptr %5
}

; Function Attrs: mustprogress nounwind uwtable
define linkonce_odr hidden void @_ZNSt10unique_ptrIN5osgeo4proj3crs14EngineeringCRS7PrivateESt14default_deleteIS4_EED2Ev(ptr noundef nonnull align 8 dereferenceable(8) %0) unnamed_addr #4 comdat align 2 personality ptr @__gxx_personality_v0 {
  %2 = alloca ptr, align 8
  %3 = alloca ptr, align 8
  store ptr %0, ptr %2, align 8
  %4 = load ptr, ptr %2, align 8
  %5 = getelementptr inbounds %"class.std::unique_ptr", ptr %4, i32 0, i32 0
  %6 = call noundef nonnull align 8 dereferenceable(8) ptr @_ZNSt15__uniq_ptr_implIN5osgeo4proj3crs14EngineeringCRS7PrivateESt14default_deleteIS4_EE6_M_ptrEv(ptr noundef nonnull align 8 dereferenceable(8) %5) #3
  store ptr %6, ptr %3, align 8
  %7 = load ptr, ptr %3, align 8
  %8 = load ptr, ptr %7, align 8
  %9 = icmp ne ptr %8, null
  br i1 %9, label %10, label %15

10:                                               ; preds = %1
  %11 = call noundef nonnull align 1 dereferenceable(1) ptr @_ZNSt10unique_ptrIN5osgeo4proj3crs14EngineeringCRS7PrivateESt14default_deleteIS4_EE11get_deleterEv(ptr noundef nonnull align 8 dereferenceable(8) %4) #3
  %12 = load ptr, ptr %3, align 8
  %13 = load ptr, ptr %12, align 8
  invoke void @_ZNKSt14default_deleteIN5osgeo4proj3crs14EngineeringCRS7PrivateEEclEPS4_(ptr noundef nonnull align 1 dereferenceable(1) %11, ptr noundef %13)
          to label %14 unwind label %17

14:                                               ; preds = %10
  br label %15

15:                                               ; preds = %14, %1
  %16 = load ptr, ptr %3, align 8
  store ptr null, ptr %16, align 8
  ret void

17:                                               ; preds = %10
  %18 = landingpad { ptr, i32 }
          catch ptr null
  %19 = extractvalue { ptr, i32 } %18, 0
  call void @__clang_call_terminate(ptr %19) #20
  unreachable
}

; Function Attrs: mustprogress nounwind uwtable
define void @_ZN5osgeo4proj3crs14EngineeringCRSD2Ev(ptr noundef nonnull align 8 dereferenceable(16) %0, ptr noundef %1) unnamed_addr #4 align 2 {
  %3 = alloca ptr, align 8
  %4 = alloca ptr, align 8
  store ptr %0, ptr %3, align 8
  store ptr %1, ptr %4, align 8
  %5 = load ptr, ptr %3, align 8
  %6 = load ptr, ptr %4, align 8
  %7 = load ptr, ptr %6, align 8
  store ptr %7, ptr %5, align 8
  %8 = getelementptr inbounds ptr, ptr %6, i64 1
  %9 = load ptr, ptr %8, align 8
  %10 = load ptr, ptr %5, align 8
  %11 = getelementptr i8, ptr %10, i64 -24
  %12 = load i64, ptr %11, align 8
  %13 = getelementptr inbounds i8, ptr %5, i64 %12
  store ptr %9, ptr %13, align 8
  %14 = getelementptr inbounds ptr, ptr %6, i64 2
  %15 = load ptr, ptr %14, align 8
  %16 = load ptr, ptr %5, align 8
  %17 = getelementptr i8, ptr %16, i64 -24
  %18 = load i64, ptr %17, align 8
  %19 = add i64 %18, 16
  %20 = getelementptr inbounds i8, ptr %5, i64 %19
  store ptr %15, ptr %20, align 8
  %21 = getelementptr inbounds ptr, ptr %6, i64 3
  %22 = load ptr, ptr %21, align 8
  %23 = load ptr, ptr %5, align 8
  %24 = getelementptr i8, ptr %23, i64 -24
  %25 = load i64, ptr %24, align 8
  %26 = add i64 %25, 24
  %27 = getelementptr inbounds i8, ptr %5, i64 %26
  store ptr %22, ptr %27, align 8
  %28 = getelementptr inbounds ptr, ptr %6, i64 4
  %29 = load ptr, ptr %28, align 8
  %30 = load ptr, ptr %5, align 8
  %31 = getelementptr i8, ptr %30, i64 -24
  %32 = load i64, ptr %31, align 8
  %33 = add i64 %32, 48
  %34 = getelementptr inbounds i8, ptr %5, i64 %33
  store ptr %29, ptr %34, align 8
  %35 = getelementptr inbounds %"class.osgeo::proj::crs::EngineeringCRS", ptr %5, i32 0, i32 1
  call void @_ZNSt10unique_ptrIN5osgeo4proj3crs14EngineeringCRS7PrivateESt14default_deleteIS4_EED2Ev(ptr noundef nonnull align 8 dereferenceable(8) %35) #3
  ret void
}

; Function Attrs: mustprogress nounwind uwtable
define void @_ZN5osgeo4proj3crs14EngineeringCRSD1Ev(ptr noundef nonnull align 8 dereferenceable(16) %0) unnamed_addr #4 align 2 {
  %2 = alloca ptr, align 8
  store ptr %0, ptr %2, align 8
  %3 = load ptr, ptr %2, align 8
  call void @_ZN5osgeo4proj3crs14EngineeringCRSD2Ev(ptr noundef nonnull align 8 dereferenceable(16) %3, ptr noundef @_ZTTN5osgeo4proj3crs14EngineeringCRSE) #3
  %4 = getelementptr inbounds i8, ptr %3, i64 16
  call void @_ZN5osgeo4proj3crs9SingleCRSD2Ev(ptr noundef nonnull align 8 dereferenceable(72) %4) #3
  ret void
}

; Function Attrs: mustprogress nounwind uwtable
define void @_ZN5osgeo4proj3crs14EngineeringCRSD0Ev(ptr noundef nonnull align 8 dereferenceable(16) %0) unnamed_addr #4 align 2 {
  %2 = alloca ptr, align 8
  store ptr %0, ptr %2, align 8
  %3 = load ptr, ptr %2, align 8
  call void @_ZN5osgeo4proj3crs14EngineeringCRSD1Ev(ptr noundef nonnull align 8 dereferenceable(16) %3) #3
  call void @_ZdlPv(ptr noundef %3) #21
  ret void
}