; Function Attrs: mustprogress nounwind uwtable
define void @_ZN5osgeo4proj3crs14EngineeringCRSD0Ev(ptr noundef nonnull align 8 dereferenceable(16) %0) unnamed_addr #3 align 2 personality ptr @__gxx_personality_v0 {
  store ptr getelementptr inbounds inrange(-24, 48) ({ [9 x ptr], [15 x ptr], [5 x ptr], [5 x ptr], [5 x ptr] }, ptr @_ZTVN5osgeo4proj3crs14EngineeringCRSE, i64 0, i32 0, i64 3), ptr %0, align 8
  %2 = getelementptr inbounds i8, ptr %0, i64 16
  store ptr getelementptr inbounds inrange(-72, 48) ({ [9 x ptr], [15 x ptr], [5 x ptr], [5 x ptr], [5 x ptr] }, ptr @_ZTVN5osgeo4proj3crs14EngineeringCRSE, i64 0, i32 1, i64 9), ptr %2, align 8
  %3 = getelementptr i8, ptr %0, i64 32
  store ptr getelementptr inbounds inrange(-16, 24) ({ [9 x ptr], [15 x ptr], [5 x ptr], [5 x ptr], [5 x ptr] }, ptr @_ZTVN5osgeo4proj3crs14EngineeringCRSE, i64 0, i32 2, i64 2), ptr %3, align 8
  %4 = getelementptr i8, ptr %0, i64 40
  store ptr getelementptr inbounds inrange(-16, 24) ({ [9 x ptr], [15 x ptr], [5 x ptr], [5 x ptr], [5 x ptr] }, ptr @_ZTVN5osgeo4proj3crs14EngineeringCRSE, i64 0, i32 3, i64 2), ptr %4, align 8
  %5 = getelementptr i8, ptr %0, i64 64
  store ptr getelementptr inbounds inrange(-16, 24) ({ [9 x ptr], [15 x ptr], [5 x ptr], [5 x ptr], [5 x ptr] }, ptr @_ZTVN5osgeo4proj3crs14EngineeringCRSE, i64 0, i32 4, i64 2), ptr %5, align 8
  %6 = getelementptr inbounds i8, ptr %0, i64 8
  %7 = load ptr, ptr %6, align 8
  %.not.i.i.i = icmp eq ptr %7, null
  br i1 %.not.i.i.i, label %_ZN5osgeo4proj3crs14EngineeringCRSD1Ev.exit, label %_ZNKSt14default_deleteIN5osgeo4proj3crs14EngineeringCRS7PrivateEEclEPS4_.exit.i.i.i

_ZNKSt14default_deleteIN5osgeo4proj3crs14EngineeringCRS7PrivateEEclEPS4_.exit.i.i.i: ; preds = %1
  tail call void @_ZdlPv(ptr noundef nonnull %7) #36
  br label %_ZN5osgeo4proj3crs14EngineeringCRSD1Ev.exit

_ZN5osgeo4proj3crs14EngineeringCRSD1Ev.exit:      ; preds = %1, %_ZNKSt14default_deleteIN5osgeo4proj3crs14EngineeringCRS7PrivateEEclEPS4_.exit.i.i.i
  store ptr null, ptr %6, align 8
  tail call void @_ZN5osgeo4proj3crs9SingleCRSD2Ev(ptr noundef nonnull align 8 dereferenceable(72) %2) #37
  tail call void @_ZdlPv(ptr noundef nonnull %0) #36
  ret void
}